target datalayout = "e-m:e-p270:32:32-p271:32:32-p272:64:64-i64:64-i128:128-f80:128-n8:16:32:64-S128"
target triple = "x86_64-pc-linux-gnu"

@.str = private unnamed_addr constant [3 x i8] c"rb\00", align 1

; Function Attrs: mustprogress nounwind uwtable
define internal noundef i32 @_ZL11ChompStrlenPKc(ptr noundef %0) #6 {
  %2 = alloca i32, align 4
  %3 = alloca ptr, align 8
  %4 = alloca i32, align 4
  store ptr %0, ptr %3, align 8, !tbaa !18
  %5 = load ptr, ptr %3, align 8, !tbaa !18
  %6 = icmp ne ptr %5, null
  br i1 %6, label %8, label %7

7:                                                ; preds = %1
  store i32 0, ptr %2, align 4
  br label %55

8:                                                ; preds = %1
  call void @llvm.lifetime.start.p0(i64 4, ptr %4) #3
  %9 = load ptr, ptr %3, align 8, !tbaa !18
  %10 = call i64 @strlen(ptr noundef %9) #8
  %11 = trunc i64 %10 to i32
  store i32 %11, ptr %4, align 4, !tbaa !14
  %12 = load ptr, ptr %3, align 8, !tbaa !18
  %13 = load i32, ptr %4, align 4, !tbaa !14
  %14 = sub i32 %13, 1
  %15 = zext i32 %14 to i64
  %16 = getelementptr inbounds nuw i8, ptr %12, i64 %15
  %17 = load i8, ptr %16, align 1, !tbaa !11
  %18 = sext i8 %17 to i32
  %19 = icmp eq i32 %18, 10
  br i1 %19, label %29, label %20

20:                                               ; preds = %8
  %21 = load ptr, ptr %3, align 8, !tbaa !18
  %22 = load i32, ptr %4, align 4, !tbaa !14
  %23 = sub i32 %22, 1
  %24 = zext i32 %23 to i64
  %25 = getelementptr inbounds nuw i8, ptr %21, i64 %24
  %26 = load i8, ptr %25, align 1, !tbaa !11
  %27 = sext i8 %26 to i32
  %28 = icmp eq i32 %27, 13
  br i1 %28, label %29, label %32

29:                                               ; preds = %20, %8
  %30 = load i32, ptr %4, align 4, !tbaa !14
  %31 = add i32 %30, -1
  store i32 %31, ptr %4, align 4, !tbaa !14
  br label %32

32:                                               ; preds = %29, %20
  %33 = load ptr, ptr %3, align 8, !tbaa !18
  %34 = load i32, ptr %4, align 4, !tbaa !14
  %35 = sub i32 %34, 1
  %36 = zext i32 %35 to i64
  %37 = getelementptr inbounds nuw i8, ptr %33, i64 %36
  %38 = load i8, ptr %37, align 1, !tbaa !11
  %39 = sext i8 %38 to i32
  %40 = icmp eq i32 %39, 10
  br i1 %40, label %50, label %41

41:                                               ; preds = %32
  %42 = load ptr, ptr %3, align 8, !tbaa !18
  %43 = load i32, ptr %4, align 4, !tbaa !14
  %44 = sub i32 %43, 1
  %45 = zext i32 %44 to i64
  %46 = getelementptr inbounds nuw i8, ptr %42, i64 %45
  %47 = load i8, ptr %46, align 1, !tbaa !11
  %48 = sext i8 %47 to i32
  %49 = icmp eq i32 %48, 13
  br i1 %49, label %50, label %53

50:                                               ; preds = %41, %32
  %51 = load i32, ptr %4, align 4, !tbaa !14
  %52 = add i32 %51, -1
  store i32 %52, ptr %4, align 4, !tbaa !14
  br label %53

53:                                               ; preds = %50, %41
  %54 = load i32, ptr %4, align 4, !tbaa !14
  store i32 %54, ptr %2, align 4
  call void @llvm.lifetime.end.p0(i64 4, ptr %4) #3
  br label %55

55:                                               ; preds = %53, %7
  %56 = load i32, ptr %2, align 4
  ret i32 %56
}

; Function Attrs: mustprogress uwtable
define dso_local noundef i32 @_ZN18cmHexFileConverter17DetermineFileTypeERKNSt7__cxx1112basic_stringIcSt11char_traitsIcESaIcEEE(ptr noundef nonnull align 8 dereferenceable(32) %0) #4 align 2 {
  %2 = alloca i32, align 4
  %3 = alloca ptr, align 8
  %4 = alloca [1024 x i8], align 16
  %5 = alloca ptr, align 8
  %6 = alloca i32, align 4
  %7 = alloca i32, align 4
  %8 = alloca i32, align 4
  %9 = alloca i32, align 4
  %10 = alloca i32, align 4
  %11 = alloca i32, align 4
  store ptr %0, ptr %3, align 8, !tbaa !4
  call void @llvm.lifetime.start.p0(i64 1024, ptr %4) #3
  call void @llvm.lifetime.start.p0(i64 8, ptr %5) #3
  %12 = load ptr, ptr %3, align 8, !tbaa !4
  %13 = call noundef ptr @_ZN5cmsys11SystemTools5FopenERKNSt7__cxx1112basic_stringIcSt11char_traitsIcESaIcEEEPKc(ptr noundef nonnull align 8 dereferenceable(32) %12, ptr noundef @.str)
  store ptr %13, ptr %5, align 8, !tbaa !9
  %14 = load ptr, ptr %5, align 8, !tbaa !9
  %15 = icmp ne ptr %14, null
  br i1 %15, label %17, label %16

16:                                               ; preds = %1
  store i32 0, ptr %2, align 4
  store i32 1, ptr %6, align 4
  br label %76

17:                                               ; preds = %1
  %18 = getelementptr inbounds [1024 x i8], ptr %4, i64 0, i64 0
  %19 = load ptr, ptr %5, align 8, !tbaa !9
  %20 = call ptr @fgets(ptr noundef %18, i32 noundef 1024, ptr noundef %19)
  %21 = icmp ne ptr %20, null
  br i1 %21, label %24, label %22

22:                                               ; preds = %17
  %23 = getelementptr inbounds [1024 x i8], ptr %4, i64 0, i64 0
  store i8 0, ptr %23, align 16, !tbaa !11
  br label %24

24:                                               ; preds = %22, %17
  %25 = load ptr, ptr %5, align 8, !tbaa !9
  %26 = call i32 @fclose(ptr noundef %25)
  call void @llvm.lifetime.start.p0(i64 4, ptr %7) #3
  store i32 0, ptr %7, align 4, !tbaa !12
  call void @llvm.lifetime.start.p0(i64 4, ptr %8) #3
  store i32 0, ptr %8, align 4, !tbaa !14
  call void @llvm.lifetime.start.p0(i64 4, ptr %9) #3
  store i32 0, ptr %9, align 4, !tbaa !14
  %27 = getelementptr inbounds [1024 x i8], ptr %4, i64 0, i64 0
  %28 = load i8, ptr %27, align 16, !tbaa !11
  %29 = sext i8 %28 to i32
  %30 = icmp eq i32 %29, 58
  br i1 %30, label %31, label %32

31:                                               ; preds = %24
  store i32 1, ptr %7, align 4, !tbaa !12
  store i32 11, ptr %8, align 4, !tbaa !14
  store i32 523, ptr %9, align 4, !tbaa !14
  br label %40

32:                                               ; preds = %24
  %33 = getelementptr inbounds [1024 x i8], ptr %4, i64 0, i64 0
  %34 = load i8, ptr %33, align 16, !tbaa !11
  %35 = sext i8 %34 to i32
  %36 = icmp eq i32 %35, 83
  br i1 %36, label %37, label %38

37:                                               ; preds = %32
  store i32 2, ptr %7, align 4, !tbaa !12
  store i32 10, ptr %8, align 4, !tbaa !14
  store i32 526, ptr %9, align 4, !tbaa !14
  br label %39

38:                                               ; preds = %32
  store i32 0, ptr %2, align 4
  store i32 1, ptr %6, align 4
  br label %75

39:                                               ; preds = %37
  br label %40

40:                                               ; preds = %39, %31
  call void @llvm.lifetime.start.p0(i64 4, ptr %10) #3
  %41 = getelementptr inbounds [1024 x i8], ptr %4, i64 0, i64 0
  %42 = call noundef i32 @_ZL11ChompStrlenPKc(ptr noundef %41)
  store i32 %42, ptr %10, align 4, !tbaa !14
  %43 = load i32, ptr %10, align 4, !tbaa !14
  %44 = load i32, ptr %8, align 4, !tbaa !14
  %45 = icmp ult i32 %43, %44
  br i1 %45, label %50, label %46

46:                                               ; preds = %40
  %47 = load i32, ptr %10, align 4, !tbaa !14
  %48 = load i32, ptr %9, align 4, !tbaa !14
  %49 = icmp ugt i32 %47, %48
  br i1 %49, label %50, label %51

50:                                               ; preds = %46, %40
  store i32 0, ptr %2, align 4
  store i32 1, ptr %6, align 4
  br label %74

51:                                               ; preds = %46
  call void @llvm.lifetime.start.p0(i64 4, ptr %11) #3
  store i32 1, ptr %11, align 4, !tbaa !14
  br label %52

52:                                               ; preds = %67, %51
  %53 = load i32, ptr %11, align 4, !tbaa !14
  %54 = load i32, ptr %10, align 4, !tbaa !14
  %55 = icmp ult i32 %53, %54
  br i1 %55, label %57, label %56

56:                                               ; preds = %52
  store i32 2, ptr %6, align 4
  br label %70

57:                                               ; preds = %52
  %58 = load i32, ptr %11, align 4, !tbaa !14
  %59 = zext i32 %58 to i64
  %60 = getelementptr inbounds nuw [1024 x i8], ptr %4, i64 0, i64 %59
  %61 = load i8, ptr %60, align 1, !tbaa !11
  %62 = sext i8 %61 to i32
  %63 = call i32 @isxdigit(i32 noundef %62) #8
  %64 = icmp ne i32 %63, 0
  br i1 %64, label %66, label %65

65:                                               ; preds = %57
  store i32 0, ptr %2, align 4
  store i32 1, ptr %6, align 4
  br label %70

66:                                               ; preds = %57
  br label %67

67:                                               ; preds = %66
  %68 = load i32, ptr %11, align 4, !tbaa !14
  %69 = add i32 %68, 1
  store i32 %69, ptr %11, align 4, !tbaa !14
  br label %52, !llvm.loop !16

70:                                               ; preds = %65, %56
  call void @llvm.lifetime.end.p0(i64 4, ptr %11) #3
  %71 = load i32, ptr %6, align 4
  switch i32 %71, label %74 [
    i32 2, label %72
  ]

72:                                               ; preds = %70
  %73 = load i32, ptr %7, align 4, !tbaa !12
  store i32 %73, ptr %2, align 4
  store i32 1, ptr %6, align 4
  br label %74

74:                                               ; preds = %72, %70, %50
  call void @llvm.lifetime.end.p0(i64 4, ptr %10) #3
  br label %75

75:                                               ; preds = %74, %38
  call void @llvm.lifetime.end.p0(i64 4, ptr %9) #3
  call void @llvm.lifetime.end.p0(i64 4, ptr %8) #3
  call void @llvm.lifetime.end.p0(i64 4, ptr %7) #3
  br label %76

76:                                               ; preds = %75, %16
  call void @llvm.lifetime.end.p0(i64 8, ptr %5) #3
  call void @llvm.lifetime.end.p0(i64 1024, ptr %4) #3
  %77 = load i32, ptr %2, align 4
  ret i32 %77
}