; Function Attrs: mustprogress uwtable
define dso_local noundef range(i32 0, 3) i32 @_ZN18cmHexFileConverter17DetermineFileTypeERKNSt7__cxx1112basic_stringIcSt11char_traitsIcESaIcEEE(ptr noundef nonnull align 8 dereferenceable(32) %0) local_unnamed_addr #3 align 2 {
  %2 = alloca [1024 x i8], align 16
  call void @llvm.lifetime.start.p0(i64 1024, ptr nonnull %2) #9
  %3 = tail call noundef ptr @_ZN5cmsys11SystemTools5FopenERKNSt7__cxx1112basic_stringIcSt11char_traitsIcESaIcEEEPKc(ptr noundef nonnull align 8 dereferenceable(32) %0, ptr noundef nonnull @.str)
  %.not = icmp eq ptr %3, null
  br i1 %.not, label %.loopexit, label %4

4:                                                ; preds = %1
  %5 = call ptr @fgets(ptr noundef nonnull %2, i32 noundef 1024, ptr noundef nonnull %3)
  %.not22 = icmp eq ptr %5, null
  br i1 %.not22, label %6, label %7

6:                                                ; preds = %4
  store i8 0, ptr %2, align 16, !tbaa !4
  br label %7

7:                                                ; preds = %6, %4
  %8 = call i32 @fclose(ptr noundef nonnull %3)
  %9 = load i8, ptr %2, align 16, !tbaa !4
  switch i8 %9, label %.loopexit [
    i8 58, label %11
    i8 83, label %10
  ]

10:                                               ; preds = %7
  br label %11

11:                                               ; preds = %7, %10
  %.017 = phi i32 [ 2, %10 ], [ 1, %7 ]
  %.016 = phi i32 [ 10, %10 ], [ 11, %7 ]
  %.015 = phi i32 [ 526, %10 ], [ 523, %7 ]
  %12 = call i64 @strlen(ptr noundef nonnull readonly dereferenceable(1) %2) #10
  %13 = trunc i64 %12 to i32
  %14 = add i64 %12, 4294967295
  %15 = and i64 %14, 4294967295
  %16 = getelementptr inbounds nuw i8, ptr %2, i64 %15
  %17 = load i8, ptr %16, align 1, !tbaa !4
  switch i8 %17, label %20 [
    i8 10, label %18
    i8 13, label %18
  ]

18:                                               ; preds = %11, %11
  %19 = add i32 %13, -1
  br label %20

20:                                               ; preds = %18, %11
  %.0.i = phi i32 [ %19, %18 ], [ %13, %11 ]
  %21 = add i32 %.0.i, -1
  %22 = zext i32 %21 to i64
  %23 = getelementptr inbounds nuw i8, ptr %2, i64 %22
  %24 = load i8, ptr %23, align 1, !tbaa !4
  switch i8 %24, label %_ZL11ChompStrlenPKc.exit [
    i8 10, label %25
    i8 13, label %25
  ]

25:                                               ; preds = %20, %20
  br label %_ZL11ChompStrlenPKc.exit

_ZL11ChompStrlenPKc.exit:                         ; preds = %20, %25
  %.1.i = phi i32 [ %21, %25 ], [ %.0.i, %20 ]
  %26 = icmp ult i32 %.1.i, %.016
  %27 = icmp ugt i32 %.1.i, %.015
  %or.cond = or i1 %26, %27
  br i1 %or.cond, label %.loopexit, label %.lr.ph.preheader

.lr.ph.preheader:                                 ; preds = %_ZL11ChompStrlenPKc.exit
  %wide.trip.count = zext nneg i32 %.1.i to i64
  br label %.lr.ph

28:                                               ; preds = %.lr.ph
  %indvars.iv.next = add nuw nsw i64 %indvars.iv, 1
  %exitcond.not = icmp eq i64 %indvars.iv.next, %wide.trip.count
  br i1 %exitcond.not, label %.loopexit, label %.lr.ph, !llvm.loop !7

.lr.ph:                                           ; preds = %.lr.ph.preheader, %28
  %indvars.iv = phi i64 [ 1, %.lr.ph.preheader ], [ %indvars.iv.next, %28 ]
  %29 = getelementptr inbounds nuw [1024 x i8], ptr %2, i64 0, i64 %indvars.iv
  %30 = load i8, ptr %29, align 1, !tbaa !4
  %31 = sext i8 %30 to i32
  %32 = call i32 @isxdigit(i32 noundef %31) #10
  %.not23 = icmp eq i32 %32, 0
  br i1 %.not23, label %.loopexit, label %28

.loopexit:                                        ; preds = %.lr.ph, %28, %7, %_ZL11ChompStrlenPKc.exit, %1
  %.014 = phi i32 [ 0, %1 ], [ 0, %7 ], [ 0, %_ZL11ChompStrlenPKc.exit ], [ 0, %.lr.ph ], [ %.017, %28 ]
  call void @llvm.lifetime.end.p0(i64 1024, ptr nonnull %2) #9
  ret i32 %.014
}